target datalayout = "e-m:e-p270:32:32-p271:32:32-p272:64:64-i64:64-i128:128-f80:128-n8:16:32:64-S128"
target triple = "x86_64-pc-linux-gnu"

%"class.boost::urls::url_view_base" = type { [8 x i8], %"struct.boost::urls::detail::url_impl", ptr }
%"struct.boost::urls::detail::url_impl" = type <{ ptr, [8 x i64], [7 x i64], i64, i64, [16 x i8], i16, [2 x i8], i32, i16, i8, [5 x i8] }>

; Function Attrs: mustprogress nounwind uwtable
define noundef nonnull align 8 dereferenceable(192) ptr @_ZN5boost4urls8url_viewaSERKNS0_13url_view_baseE(ptr noundef nonnull align 8 dereferenceable(192) %0, ptr noundef nonnull align 8 dereferenceable(192) %1) #2 align 2 {
  %3 = alloca ptr, align 8
  %4 = alloca ptr, align 8
  %5 = alloca ptr, align 8
  store ptr %0, ptr %4, align 8, !tbaa !7
  store ptr %1, ptr %5, align 8, !tbaa !7
  %6 = load ptr, ptr %4, align 8
  %7 = getelementptr inbounds nuw %"class.boost::urls::url_view_base", ptr %6, i32 0, i32 2
  %8 = load ptr, ptr %7, align 8, !tbaa !24
  %9 = load ptr, ptr %5, align 8, !tbaa !7
  %10 = getelementptr inbounds nuw %"class.boost::urls::url_view_base", ptr %9, i32 0, i32 2
  %11 = load ptr, ptr %10, align 8, !tbaa !24
  %12 = icmp eq ptr %8, %11
  br i1 %12, label %13, label %14

13:                                               ; preds = %2
  store ptr %6, ptr %3, align 8
  br label %33

14:                                               ; preds = %2
  %15 = load ptr, ptr %5, align 8, !tbaa !7
  %16 = getelementptr inbounds nuw %"class.boost::urls::url_view_base", ptr %15, i32 0, i32 2
  %17 = load ptr, ptr %16, align 8, !tbaa !24
  %18 = getelementptr inbounds nuw %"struct.boost::urls::detail::url_impl", ptr %17, i32 0, i32 10
  %19 = load i8, ptr %18, align 2, !tbaa !31
  %20 = icmp eq i8 %19, 1
  br i1 %20, label %21, label %26

21:                                               ; preds = %14
  %22 = load ptr, ptr %5, align 8, !tbaa !7
  %23 = getelementptr inbounds nuw %"class.boost::urls::url_view_base", ptr %22, i32 0, i32 2
  %24 = load ptr, ptr %23, align 8, !tbaa !24
  %25 = getelementptr inbounds nuw %"class.boost::urls::url_view_base", ptr %6, i32 0, i32 2
  store ptr %24, ptr %25, align 8, !tbaa !24
  br label %32

26:                                               ; preds = %14
  %27 = load ptr, ptr %5, align 8, !tbaa !7
  %28 = getelementptr inbounds nuw %"class.boost::urls::url_view_base", ptr %27, i32 0, i32 1
  %29 = getelementptr inbounds nuw %"class.boost::urls::url_view_base", ptr %6, i32 0, i32 1
  call void @llvm.memcpy.p0.p0.i64(ptr align 8 %29, ptr align 8 %28, i64 171, i1 false)
  %30 = getelementptr inbounds nuw %"class.boost::urls::url_view_base", ptr %6, i32 0, i32 1
  %31 = getelementptr inbounds nuw %"class.boost::urls::url_view_base", ptr %6, i32 0, i32 2
  store ptr %30, ptr %31, align 8, !tbaa !24
  br label %32

32:                                               ; preds = %26, %21
  store ptr %6, ptr %3, align 8
  br label %33

33:                                               ; preds = %32, %13
  %34 = load ptr, ptr %3, align 8
  ret ptr %34
}