; Function Attrs: mustprogress nofree norecurse nosync nounwind willreturn memory(read, argmem: readwrite, inaccessiblemem: none) uwtable
define noundef nonnull align 8 dereferenceable(192) ptr @_ZN5boost4urls8url_viewaSERKNS0_13url_view_baseE(ptr noundef nonnull returned align 8 dereferenceable(192) %0, ptr nocapture noundef nonnull readonly align 8 dereferenceable(192) %1) local_unnamed_addr #6 align 2 {
  %3 = getelementptr inbounds nuw i8, ptr %0, i64 184
  %4 = load ptr, ptr %3, align 8, !tbaa !17
  %5 = getelementptr inbounds nuw i8, ptr %1, i64 184
  %6 = load ptr, ptr %5, align 8, !tbaa !17
  %7 = icmp eq ptr %4, %6
  br i1 %7, label %16, label %8

8:                                                ; preds = %2
  %9 = getelementptr inbounds nuw i8, ptr %6, i64 170
  %10 = load i8, ptr %9, align 2, !tbaa !25
  %11 = icmp eq i8 %10, 1
  br i1 %11, label %15, label %12

12:                                               ; preds = %8
  %13 = getelementptr inbounds nuw i8, ptr %1, i64 8
  %14 = getelementptr inbounds nuw i8, ptr %0, i64 8
  tail call void @llvm.memcpy.p0.p0.i64(ptr noundef nonnull align 8 dereferenceable(171) %14, ptr noundef nonnull align 8 dereferenceable(171) %13, i64 171, i1 false)
  br label %15

15:                                               ; preds = %8, %12
  %storemerge = phi ptr [ %14, %12 ], [ %6, %8 ]
  store ptr %storemerge, ptr %3, align 8, !tbaa !17
  br label %16

16:                                               ; preds = %2, %15
  ret ptr %0
}